; Function Attrs: nounwind uwtable
define dso_local void @replication_scanner_init(ptr noundef readonly captures(none) %0, ptr noundef captures(address_is_null) %1) local_unnamed_addr #0 {
  %3 = tail call ptr @palloc0(i64 noundef 32) #17
  %4 = icmp eq ptr %1, null
  br i1 %4, label %8, label %5

5:                                                ; preds = %2
  %6 = tail call ptr @palloc(i64 noundef 152) #17
  store ptr %6, ptr %1, align 8
  %7 = icmp eq ptr %6, null
  br i1 %7, label %8, label %12

8:                                                ; preds = %5, %2
  %.sink = phi i32 [ 22, %2 ], [ 12, %5 ]
  %9 = tail call ptr @__errno_location() #20
  store i32 %.sink, ptr %9, align 4
  %10 = tail call zeroext i1 @errstart_cold(i32 noundef 21, ptr noundef null) #21
  tail call void @llvm.assume(i1 %10)
  %11 = tail call i32 (ptr, ...) @errmsg_internal(ptr noundef nonnull @.str.13) #17
  tail call void @errfinish(ptr noundef nonnull @.str.12, i32 noundef 275, ptr noundef nonnull @__func__.replication_scanner_init) #17
  unreachable

12:                                               ; preds = %5
  tail call void @llvm.memset.p0.i64(ptr noundef nonnull align 1 dereferenceable(152) %6, i8 0, i64 152, i1 false)
  %13 = load ptr, ptr %1, align 8
  %14 = getelementptr inbounds nuw i8, ptr %13, i64 64
  %15 = getelementptr inbounds nuw i8, ptr %13, i64 84
  store i32 0, ptr %15, align 4
  %16 = getelementptr inbounds nuw i8, ptr %13, i64 88
  store i32 0, ptr %16, align 8
  %17 = getelementptr inbounds nuw i8, ptr %13, i64 96
  store ptr null, ptr %17, align 8
  %18 = getelementptr inbounds nuw i8, ptr %13, i64 8
  tail call void @llvm.memset.p0.i64(ptr noundef nonnull align 8 dereferenceable(40) %18, i8 0, i64 40, i1 false)
  tail call void @llvm.memset.p0.i64(ptr noundef nonnull align 8 dereferenceable(16) %14, i8 0, i64 16, i1 false)
  %19 = load ptr, ptr %1, align 8
  store ptr %3, ptr %19, align 8
  %20 = tail call i64 @strlen(ptr noundef nonnull readonly dereferenceable(1) %0) #19
  %21 = trunc i64 %20 to i32
  %22 = tail call nonnull ptr @replication_yy_scan_bytes(ptr noundef nonnull readonly %0, i32 noundef %21, ptr noundef nonnull %19)
  ret void
}